target datalayout = "e-m:e-p270:32:32-p271:32:32-p272:64:64-i64:64-i128:128-f80:128-n8:16:32:64-S128"
target triple = "x86_64-pc-linux-gnu"

%struct._typeobject = type { %struct.PyVarObject, ptr, i64, i64, ptr, i64, ptr, ptr, ptr, ptr, ptr, ptr, ptr, ptr, ptr, ptr, ptr, ptr, ptr, i64, ptr, ptr, ptr, ptr, i64, ptr, ptr, ptr, ptr, ptr, ptr, ptr, ptr, ptr, i64, ptr, ptr, ptr, ptr, ptr, ptr, ptr, ptr, ptr, ptr, ptr, i32, ptr, ptr, i8, i16 }
%struct.PyVarObject = type { %struct._object, i64 }
%struct._object = type { %union.anon, ptr }
%union.anon = type { i64 }
%struct.filterobject = type { %struct._object, ptr, ptr }
%struct.anon = type { i32, i32 }

@.str = private unnamed_addr constant [7 x i8] c"filter\00", align 1

; Function Attrs: alwaysinline nounwind uwtable
define internal void @Py_INCREF(ptr noundef %0) #3 {
  %2 = alloca ptr, align 8
  %3 = alloca i32, align 4
  %4 = alloca i32, align 4
  store ptr %0, ptr %2, align 8, !tbaa !4
  call void @llvm.lifetime.start.p0(i64 4, ptr %3) #9
  %5 = load ptr, ptr %2, align 8, !tbaa !4
  %6 = getelementptr inbounds nuw %struct._object, ptr %5, i32 0, i32 0
  %7 = getelementptr inbounds nuw %struct.anon, ptr %6, i32 0, i32 0
  %8 = load i32, ptr %7, align 8, !tbaa !74
  store i32 %8, ptr %3, align 4, !tbaa !38
  %9 = load i32, ptr %3, align 4, !tbaa !38
  %10 = icmp slt i32 %9, 0
  br i1 %10, label %11, label %12

11:                                               ; preds = %1
  store i32 1, ptr %4, align 4
  br label %18

12:                                               ; preds = %1
  %13 = load i32, ptr %3, align 4, !tbaa !38
  %14 = add i32 %13, 1
  %15 = load ptr, ptr %2, align 8, !tbaa !4
  %16 = getelementptr inbounds nuw %struct._object, ptr %15, i32 0, i32 0
  %17 = getelementptr inbounds nuw %struct.anon, ptr %16, i32 0, i32 0
  store i32 %14, ptr %17, align 8, !tbaa !74
  store i32 0, ptr %4, align 4
  br label %18

18:                                               ; preds = %12, %11
  call void @llvm.lifetime.end.p0(i64 4, ptr %3) #9
  %19 = load i32, ptr %4, align 4
  switch i32 %19, label %21 [
    i32 0, label %20
    i32 1, label %20
  ]

20:                                               ; preds = %18, %18
  ret void

21:                                               ; preds = %18
  unreachable
}

; Function Attrs: alwaysinline nounwind uwtable
define internal i32 @_Py_IsImmortal(ptr noundef %0) #3 {
  %2 = alloca ptr, align 8
  store ptr %0, ptr %2, align 8, !tbaa !4
  %3 = load ptr, ptr %2, align 8, !tbaa !4
  %4 = getelementptr inbounds nuw %struct._object, ptr %3, i32 0, i32 0
  %5 = getelementptr inbounds nuw %struct.anon, ptr %4, i32 0, i32 0
  %6 = load i32, ptr %5, align 8, !tbaa !74
  %7 = icmp slt i32 %6, 0
  %8 = zext i1 %7 to i32
  ret i32 %8
}

; Function Attrs: inlinehint nounwind uwtable
define internal ptr @_Py_NewRef(ptr noundef %0) #4 {
  %2 = alloca ptr, align 8
  store ptr %0, ptr %2, align 8, !tbaa !4
  %3 = load ptr, ptr %2, align 8, !tbaa !4
  call void @Py_INCREF(ptr noundef %3)
  %4 = load ptr, ptr %2, align 8, !tbaa !4
  ret ptr %4
}

; Function Attrs: alwaysinline nounwind uwtable
define internal void @Py_DECREF(ptr noundef %0) #3 {
  %2 = alloca ptr, align 8
  store ptr %0, ptr %2, align 8, !tbaa !4
  %3 = load ptr, ptr %2, align 8, !tbaa !4
  %4 = call i32 @_Py_IsImmortal(ptr noundef %3)
  %5 = icmp ne i32 %4, 0
  br i1 %5, label %6, label %7

6:                                                ; preds = %1
  br label %16

7:                                                ; preds = %1
  %8 = load ptr, ptr %2, align 8, !tbaa !4
  %9 = getelementptr inbounds nuw %struct._object, ptr %8, i32 0, i32 0
  %10 = getelementptr inbounds nuw %struct.anon, ptr %9, i32 0, i32 0
  %11 = load i32, ptr %10, align 8, !tbaa !74
  %12 = add i32 %11, -1
  store i32 %12, ptr %10, align 8, !tbaa !74
  %13 = icmp eq i32 %12, 0
  br i1 %13, label %14, label %16

14:                                               ; preds = %7
  %15 = load ptr, ptr %2, align 8, !tbaa !4
  call void @_Py_Dealloc(ptr noundef %15)
  br label %16

16:                                               ; preds = %6, %14, %7
  ret void
}

; Function Attrs: inlinehint nounwind uwtable
define internal i64 @_PyVectorcall_NARGS(i64 noundef %0) #4 {
  %2 = alloca i64, align 8
  store i64 %0, ptr %2, align 8, !tbaa !40
  %3 = load i64, ptr %2, align 8, !tbaa !40
  %4 = and i64 %3, 9223372036854775807
  ret i64 %4
}

; Function Attrs: nounwind uwtable
define internal ptr @filter_vectorcall(ptr noundef %0, ptr noundef %1, i64 noundef %2, ptr noundef %3) #0 {
  %5 = alloca ptr, align 8
  %6 = alloca ptr, align 8
  %7 = alloca ptr, align 8
  %8 = alloca i64, align 8
  %9 = alloca ptr, align 8
  %10 = alloca ptr, align 8
  %11 = alloca i32, align 4
  %12 = alloca i64, align 8
  %13 = alloca ptr, align 8
  %14 = alloca ptr, align 8
  store ptr %0, ptr %6, align 8, !tbaa !4
  store ptr %1, ptr %7, align 8, !tbaa !44
  store i64 %2, ptr %8, align 8, !tbaa !40
  store ptr %3, ptr %9, align 8, !tbaa !4
  call void @llvm.lifetime.start.p0(i64 8, ptr %10) #9
  %15 = load ptr, ptr %6, align 8, !tbaa !4
  store ptr %15, ptr %10, align 8, !tbaa !41
  %16 = load ptr, ptr %10, align 8, !tbaa !41
  %17 = icmp eq ptr %16, @PyFilter_Type
  br i1 %17, label %18, label %26

18:                                               ; preds = %4
  %19 = load ptr, ptr %9, align 8, !tbaa !4
  %20 = icmp eq ptr %19, null
  br i1 %20, label %26, label %21

21:                                               ; preds = %18
  %22 = load ptr, ptr %9, align 8, !tbaa !4
  %23 = call i32 @_PyArg_NoKwnames(ptr noundef @.str, ptr noundef %22)
  %24 = icmp ne i32 %23, 0
  br i1 %24, label %26, label %25

25:                                               ; preds = %21
  store ptr null, ptr %5, align 8
  store i32 1, ptr %11, align 4
  br label %71

26:                                               ; preds = %21, %18, %4
  call void @llvm.lifetime.start.p0(i64 8, ptr %12) #9
  %27 = load i64, ptr %8, align 8, !tbaa !40
  %28 = call i64 @_PyVectorcall_NARGS(i64 noundef %27)
  store i64 %28, ptr %12, align 8, !tbaa !40
  %29 = load i64, ptr %12, align 8, !tbaa !40
  %30 = icmp sle i64 2, %29
  br i1 %30, label %31, label %34

31:                                               ; preds = %26
  %32 = load i64, ptr %12, align 8, !tbaa !40
  %33 = icmp sle i64 %32, 2
  br i1 %33, label %39, label %34

34:                                               ; preds = %31, %26
  %35 = load i64, ptr %12, align 8, !tbaa !40
  %36 = call i32 @_PyArg_CheckPositional(ptr noundef @.str, i64 noundef %35, i64 noundef 2, i64 noundef 2)
  %37 = icmp ne i32 %36, 0
  br i1 %37, label %39, label %38

38:                                               ; preds = %34
  store ptr null, ptr %5, align 8
  store i32 1, ptr %11, align 4
  br label %70

39:                                               ; preds = %34, %31
  call void @llvm.lifetime.start.p0(i64 8, ptr %13) #9
  %40 = load ptr, ptr %7, align 8, !tbaa !44
  %41 = getelementptr ptr, ptr %40, i64 1
  %42 = load ptr, ptr %41, align 8, !tbaa !4
  %43 = call ptr @PyObject_GetIter(ptr noundef %42)
  store ptr %43, ptr %13, align 8, !tbaa !4
  %44 = load ptr, ptr %13, align 8, !tbaa !4
  %45 = icmp eq ptr %44, null
  br i1 %45, label %46, label %47

46:                                               ; preds = %39
  store ptr null, ptr %5, align 8
  store i32 1, ptr %11, align 4
  br label %69

47:                                               ; preds = %39
  call void @llvm.lifetime.start.p0(i64 8, ptr %14) #9
  %48 = load ptr, ptr %10, align 8, !tbaa !41
  %49 = getelementptr inbounds nuw %struct._typeobject, ptr %48, i32 0, i32 36
  %50 = load ptr, ptr %49, align 8, !tbaa !43
  %51 = load ptr, ptr %10, align 8, !tbaa !41
  %52 = call ptr %50(ptr noundef %51, i64 noundef 0)
  store ptr %52, ptr %14, align 8, !tbaa !9
  %53 = load ptr, ptr %14, align 8, !tbaa !9
  %54 = icmp eq ptr %53, null
  br i1 %54, label %55, label %57

55:                                               ; preds = %47
  %56 = load ptr, ptr %13, align 8, !tbaa !4
  call void @Py_DECREF(ptr noundef %56)
  store ptr null, ptr %5, align 8
  store i32 1, ptr %11, align 4
  br label %68

57:                                               ; preds = %47
  %58 = load ptr, ptr %7, align 8, !tbaa !44
  %59 = getelementptr ptr, ptr %58, i64 0
  %60 = load ptr, ptr %59, align 8, !tbaa !4
  %61 = call ptr @_Py_NewRef(ptr noundef %60)
  %62 = load ptr, ptr %14, align 8, !tbaa !9
  %63 = getelementptr inbounds nuw %struct.filterobject, ptr %62, i32 0, i32 1
  store ptr %61, ptr %63, align 8, !tbaa !33
  %64 = load ptr, ptr %13, align 8, !tbaa !4
  %65 = load ptr, ptr %14, align 8, !tbaa !9
  %66 = getelementptr inbounds nuw %struct.filterobject, ptr %65, i32 0, i32 2
  store ptr %64, ptr %66, align 8, !tbaa !35
  %67 = load ptr, ptr %14, align 8, !tbaa !9
  store ptr %67, ptr %5, align 8
  store i32 1, ptr %11, align 4
  br label %68

68:                                               ; preds = %57, %55
  call void @llvm.lifetime.end.p0(i64 8, ptr %14) #9
  br label %69

69:                                               ; preds = %68, %46
  call void @llvm.lifetime.end.p0(i64 8, ptr %13) #9
  br label %70

70:                                               ; preds = %69, %38
  call void @llvm.lifetime.end.p0(i64 8, ptr %12) #9
  br label %71

71:                                               ; preds = %70, %25
  call void @llvm.lifetime.end.p0(i64 8, ptr %10) #9
  %72 = load ptr, ptr %5, align 8
  ret ptr %72
}