; Function Attrs: nounwind uwtable
define internal ptr @filter_vectorcall(ptr noundef %0, ptr noundef readonly captures(none) %1, i64 noundef %2, ptr noundef %3) #0 {
  %5 = icmp ne ptr %0, @PyFilter_Type
  %6 = icmp eq ptr %3, null
  %or.cond = or i1 %5, %6
  br i1 %or.cond, label %9, label %7

7:                                                ; preds = %4
  %8 = tail call i32 @_PyArg_NoKwnames(ptr noundef nonnull @.str, ptr noundef nonnull %3) #9
  %.not = icmp eq i32 %8, 0
  br i1 %.not, label %Py_DECREF.exit, label %9

9:                                                ; preds = %7, %4
  %10 = and i64 %2, 9223372036854775807
  %or.cond3 = icmp eq i64 %10, 2
  br i1 %or.cond3, label %13, label %11

11:                                               ; preds = %9
  %12 = tail call i32 @_PyArg_CheckPositional(ptr noundef nonnull @.str, i64 noundef %10, i64 noundef 2, i64 noundef 2) #9
  %.not25 = icmp eq i32 %12, 0
  br i1 %.not25, label %Py_DECREF.exit, label %13

13:                                               ; preds = %9, %11
  %14 = getelementptr i8, ptr %1, i64 8
  %15 = load ptr, ptr %14, align 8, !tbaa !39
  %16 = tail call ptr @PyObject_GetIter(ptr noundef %15) #9
  %17 = icmp eq ptr %16, null
  br i1 %17, label %Py_DECREF.exit, label %18

18:                                               ; preds = %13
  %19 = getelementptr inbounds nuw i8, ptr %0, i64 304
  %20 = load ptr, ptr %19, align 8, !tbaa !40
  %21 = tail call ptr %20(ptr noundef %0, i64 noundef 0) #9
  %22 = icmp eq ptr %21, null
  br i1 %22, label %23, label %29

23:                                               ; preds = %18
  %24 = load i32, ptr %16, align 8, !tbaa !33
  %.not.i = icmp sgt i32 %24, -1
  br i1 %.not.i, label %25, label %Py_DECREF.exit

25:                                               ; preds = %23
  %26 = add nsw i32 %24, -1
  store i32 %26, ptr %16, align 8, !tbaa !33
  %27 = icmp eq i32 %26, 0
  br i1 %27, label %28, label %Py_DECREF.exit

28:                                               ; preds = %25
  tail call void @_Py_Dealloc(ptr noundef nonnull %16) #9
  br label %Py_DECREF.exit

29:                                               ; preds = %18
  %30 = load ptr, ptr %1, align 8, !tbaa !39
  %31 = load i32, ptr %30, align 8, !tbaa !33
  %32 = icmp slt i32 %31, 0
  br i1 %32, label %_Py_NewRef.exit, label %33

33:                                               ; preds = %29
  %34 = add nuw i32 %31, 1
  store i32 %34, ptr %30, align 8, !tbaa !33
  br label %_Py_NewRef.exit

_Py_NewRef.exit:                                  ; preds = %29, %33
  %35 = getelementptr inbounds nuw i8, ptr %21, i64 16
  store ptr %30, ptr %35, align 8, !tbaa !31
  %36 = getelementptr inbounds nuw i8, ptr %21, i64 24
  store ptr %16, ptr %36, align 8, !tbaa !34
  br label %Py_DECREF.exit

Py_DECREF.exit:                                   ; preds = %28, %25, %23, %11, %_Py_NewRef.exit, %13, %7
  %.0 = phi ptr [ null, %7 ], [ null, %11 ], [ null, %13 ], [ %21, %_Py_NewRef.exit ], [ null, %23 ], [ null, %25 ], [ null, %28 ]
  ret ptr %.0
}